target datalayout = "e-m:e-p270:32:32-p271:32:32-p272:64:64-i64:64-i128:128-f80:128-n8:16:32:64-S128"
target triple = "x86_64-pc-linux-gnu"

@export_pdu_tap_name_list = internal global ptr null, align 8
@export_pdu_encap_table = internal global ptr null, align 8

; Function Attrs: null_pointer_is_valid sspstrong uwtable
define i32 @register_export_pdu_tap_with_encap(ptr noundef %0, i32 noundef %1) #1 {
  %3 = alloca ptr, align 8
  %4 = alloca i32, align 4
  %5 = alloca ptr, align 8
  store ptr %0, ptr %3, align 8
  store i32 %1, ptr %4, align 4
  call void @llvm.lifetime.start.p0(i64 8, ptr %5) #12
  %6 = load ptr, ptr %3, align 8
  %7 = call noalias ptr @g_strdup(ptr noundef %6)
  store ptr %7, ptr %5, align 8
  %8 = load ptr, ptr @export_pdu_tap_name_list, align 8
  %9 = load ptr, ptr %5, align 8
  %10 = call ptr @g_slist_prepend(ptr noundef %8, ptr noundef %9)
  store ptr %10, ptr @export_pdu_tap_name_list, align 8
  %11 = load ptr, ptr @export_pdu_encap_table, align 8
  %12 = load ptr, ptr %5, align 8
  %13 = load i32, ptr %4, align 4
  %14 = sext i32 %13 to i64
  %15 = inttoptr i64 %14 to ptr
  %16 = call ptr @wmem_map_insert(ptr noundef %11, ptr noundef %12, ptr noundef %15)
  %17 = load ptr, ptr %5, align 8
  %18 = call i32 @register_tap(ptr noundef %17)
  call void @llvm.lifetime.end.p0(i64 8, ptr %5) #12
  ret i32 %18
}