; Function Attrs: null_pointer_is_valid sspstrong uwtable
define i32 @register_export_pdu_tap_with_encap(ptr noundef %0, i32 noundef %1) local_unnamed_addr #5 {
  %3 = tail call noalias ptr @g_strdup(ptr noundef %0)
  %4 = load ptr, ptr @export_pdu_tap_name_list, align 8
  %5 = tail call ptr @g_slist_prepend(ptr noundef %4, ptr noundef %3)
  store ptr %5, ptr @export_pdu_tap_name_list, align 8
  %6 = load ptr, ptr @export_pdu_encap_table, align 8
  %7 = sext i32 %1 to i64
  %8 = inttoptr i64 %7 to ptr
  %9 = tail call ptr @wmem_map_insert(ptr noundef %6, ptr noundef %3, ptr noundef %8)
  %10 = tail call i32 @register_tap(ptr noundef %3)
  ret i32 %10
}